target datalayout = "e-m:e-p270:32:32-p271:32:32-p272:64:64-i64:64-i128:128-f80:128-n8:16:32:64-S128"
target triple = "x86_64-pc-linux-gnu"

; Function Attrs: nounwind uwtable
define i32 @WHIRLPOOL_Update(ptr noundef %0, ptr noundef %1, i64 noundef %2) #0 {
  %4 = alloca ptr, align 8
  %5 = alloca ptr, align 8
  %6 = alloca i64, align 8
  %7 = alloca i64, align 8
  %8 = alloca ptr, align 8
  store ptr %0, ptr %4, align 8, !tbaa !3
  store ptr %1, ptr %5, align 8, !tbaa !3
  store i64 %2, ptr %6, align 8, !tbaa !7
  call void @llvm.lifetime.start.p0(i64 8, ptr %7) #5
  store i64 1152921504606846976, ptr %7, align 8, !tbaa !7
  call void @llvm.lifetime.start.p0(i64 8, ptr %8) #5
  %9 = load ptr, ptr %5, align 8, !tbaa !3
  store ptr %9, ptr %8, align 8, !tbaa !9
  br label %10

10:                                               ; preds = %14, %3
  %11 = load i64, ptr %6, align 8, !tbaa !7
  %12 = load i64, ptr %7, align 8, !tbaa !7
  %13 = icmp uge i64 %11, %12
  br i1 %13, label %14, label %25

14:                                               ; preds = %10
  %15 = load ptr, ptr %4, align 8, !tbaa !3
  %16 = load ptr, ptr %8, align 8, !tbaa !9
  %17 = load i64, ptr %7, align 8, !tbaa !7
  %18 = mul i64 %17, 8
  call void @WHIRLPOOL_BitUpdate(ptr noundef %15, ptr noundef %16, i64 noundef %18)
  %19 = load i64, ptr %7, align 8, !tbaa !7
  %20 = load i64, ptr %6, align 8, !tbaa !7
  %21 = sub i64 %20, %19
  store i64 %21, ptr %6, align 8, !tbaa !7
  %22 = load i64, ptr %7, align 8, !tbaa !7
  %23 = load ptr, ptr %8, align 8, !tbaa !9
  %24 = getelementptr inbounds nuw i8, ptr %23, i64 %22
  store ptr %24, ptr %8, align 8, !tbaa !9
  br label %10, !llvm.loop !11

25:                                               ; preds = %10
  %26 = load i64, ptr %6, align 8, !tbaa !7
  %27 = icmp ne i64 %26, 0
  br i1 %27, label %28, label %33

28:                                               ; preds = %25
  %29 = load ptr, ptr %4, align 8, !tbaa !3
  %30 = load ptr, ptr %8, align 8, !tbaa !9
  %31 = load i64, ptr %6, align 8, !tbaa !7
  %32 = mul i64 %31, 8
  call void @WHIRLPOOL_BitUpdate(ptr noundef %29, ptr noundef %30, i64 noundef %32)
  br label %33

33:                                               ; preds = %28, %25
  call void @llvm.lifetime.end.p0(i64 8, ptr %8) #5
  call void @llvm.lifetime.end.p0(i64 8, ptr %7) #5
  ret i32 1
}