; Function Attrs: nounwind uwtable
define noundef i32 @WHIRLPOOL_Update(ptr noundef %0, ptr noundef %1, i64 noundef %2) local_unnamed_addr #2 {
  %4 = icmp ugt i64 %2, 1152921504606846975
  br i1 %4, label %.lr.ph, label %._crit_edge

.lr.ph:                                           ; preds = %3, %.lr.ph
  %.015 = phi ptr [ %6, %.lr.ph ], [ %1, %3 ]
  %.01314 = phi i64 [ %5, %.lr.ph ], [ %2, %3 ]
  tail call void @WHIRLPOOL_BitUpdate(ptr noundef %0, ptr noundef %.015, i64 noundef -9223372036854775808)
  %5 = add i64 %.01314, -1152921504606846976
  %6 = getelementptr inbounds nuw i8, ptr %.015, i64 1152921504606846976
  %7 = icmp ugt i64 %5, 1152921504606846975
  br i1 %7, label %.lr.ph, label %._crit_edge, !llvm.loop !3

._crit_edge:                                      ; preds = %.lr.ph, %3
  %.013.lcssa = phi i64 [ %2, %3 ], [ %5, %.lr.ph ]
  %.0.lcssa = phi ptr [ %1, %3 ], [ %6, %.lr.ph ]
  %.not = icmp eq i64 %.013.lcssa, 0
  br i1 %.not, label %10, label %8

8:                                                ; preds = %._crit_edge
  %9 = shl nuw nsw i64 %.013.lcssa, 3
  tail call void @WHIRLPOOL_BitUpdate(ptr noundef %0, ptr noundef %.0.lcssa, i64 noundef %9)
  br label %10

10:                                               ; preds = %8, %._crit_edge
  ret i32 1
}